target datalayout = "e-m:e-p270:32:32-p271:32:32-p272:64:64-i64:64-i128:128-f80:128-n8:16:32:64-S128"
target triple = "x86_64-pc-linux-gnu"

%struct.H5FL_arr_head_t = type { i8, i32, i64, ptr, i32, i64, i64, ptr }
%struct.H5FL_arr_node_t = type { i64, i32, i32, ptr }

@H5FL_init_g = global i8 0, align 1
@H5_libterm_g = external global i8, align 1

; Function Attrs: nounwind uwtable
define ptr @H5FL_arr_realloc(ptr noundef %0, ptr noundef %1, i64 noundef %2) #0 {
  %4 = alloca ptr, align 8
  %5 = alloca ptr, align 8
  %6 = alloca i64, align 8
  %7 = alloca ptr, align 8
  %8 = alloca ptr, align 8
  %9 = alloca i64, align 8
  store ptr %0, ptr %4, align 8, !tbaa !101
  store ptr %1, ptr %5, align 8, !tbaa !69
  store i64 %2, ptr %6, align 8, !tbaa !11
  call void @llvm.lifetime.start.p0(i64 8, ptr %7) #9
  store ptr null, ptr %7, align 8, !tbaa !69
  %10 = load i8, ptr @H5FL_init_g, align 1, !tbaa !7, !range !9, !noundef !10
  %11 = trunc i8 %10 to i1
  br i1 %11, label %16, label %12

12:                                               ; preds = %3
  %13 = load i8, ptr @H5_libterm_g, align 1, !tbaa !7, !range !9, !noundef !10
  %14 = trunc i8 %13 to i1
  %15 = xor i1 %14, true
  br label %16

16:                                               ; preds = %12, %3
  %17 = phi i1 [ false, %3 ], [ %15, %12 ]
  %18 = xor i1 %17, true
  %19 = xor i1 %18, true
  %20 = zext i1 %19 to i32
  %21 = sext i32 %20 to i64
  %22 = call i64 @llvm.expect.i64(i64 %21, i64 0)
  %23 = icmp ne i64 %22, 0
  br i1 %23, label %24, label %25

24:                                               ; preds = %16
  store i8 1, ptr @H5FL_init_g, align 1, !tbaa !7
  br label %25

25:                                               ; preds = %24, %16
  %26 = load i8, ptr @H5FL_init_g, align 1, !tbaa !7, !range !9, !noundef !10
  %27 = trunc i8 %26 to i1
  br i1 %27, label %32, label %28

28:                                               ; preds = %25
  %29 = load i8, ptr @H5_libterm_g, align 1, !tbaa !7, !range !9, !noundef !10
  %30 = trunc i8 %29 to i1
  %31 = xor i1 %30, true
  br label %32

32:                                               ; preds = %28, %25
  %33 = phi i1 [ true, %25 ], [ %31, %28 ]
  %34 = xor i1 %33, true
  %35 = xor i1 %34, true
  %36 = zext i1 %35 to i32
  %37 = sext i32 %36 to i64
  %38 = call i64 @llvm.expect.i64(i64 %37, i64 1)
  %39 = icmp ne i64 %38, 0
  br i1 %39, label %40, label %85

40:                                               ; preds = %32
  %41 = load ptr, ptr %5, align 8, !tbaa !69
  %42 = icmp eq ptr %41, null
  br i1 %42, label %43, label %47

43:                                               ; preds = %40
  %44 = load ptr, ptr %4, align 8, !tbaa !101
  %45 = load i64, ptr %6, align 8, !tbaa !11
  %46 = call noalias ptr @H5FL_arr_malloc(ptr noundef %44, i64 noundef %45)
  store ptr %46, ptr %7, align 8, !tbaa !69
  br label %84

47:                                               ; preds = %40
  call void @llvm.lifetime.start.p0(i64 8, ptr %8) #9
  %48 = load ptr, ptr %5, align 8, !tbaa !69
  %49 = getelementptr inbounds i8, ptr %48, i64 -8
  store ptr %49, ptr %8, align 8, !tbaa !102
  %50 = load ptr, ptr %8, align 8, !tbaa !102
  %51 = load i64, ptr %50, align 8, !tbaa !91
  %52 = load i64, ptr %6, align 8, !tbaa !11
  %53 = icmp ne i64 %51, %52
  br i1 %53, label %54, label %81

54:                                               ; preds = %47
  call void @llvm.lifetime.start.p0(i64 8, ptr %9) #9
  %55 = load ptr, ptr %4, align 8, !tbaa !101
  %56 = load i64, ptr %6, align 8, !tbaa !11
  %57 = call noalias ptr @H5FL_arr_malloc(ptr noundef %55, i64 noundef %56)
  store ptr %57, ptr %7, align 8, !tbaa !69
  %58 = load ptr, ptr %4, align 8, !tbaa !101
  %59 = getelementptr inbounds nuw %struct.H5FL_arr_head_t, ptr %58, i32 0, i32 7
  %60 = load ptr, ptr %59, align 8, !tbaa !52
  %61 = load ptr, ptr %8, align 8, !tbaa !102
  %62 = load i64, ptr %61, align 8, !tbaa !91
  %63 = load i64, ptr %6, align 8, !tbaa !11
  %64 = icmp ult i64 %62, %63
  br i1 %64, label %65, label %68

65:                                               ; preds = %54
  %66 = load ptr, ptr %8, align 8, !tbaa !102
  %67 = load i64, ptr %66, align 8, !tbaa !91
  br label %70

68:                                               ; preds = %54
  %69 = load i64, ptr %6, align 8, !tbaa !11
  br label %70

70:                                               ; preds = %68, %65
  %71 = phi i64 [ %67, %65 ], [ %69, %68 ]
  %72 = getelementptr inbounds nuw %struct.H5FL_arr_node_t, ptr %60, i64 %71
  %73 = getelementptr inbounds nuw %struct.H5FL_arr_node_t, ptr %72, i32 0, i32 0
  %74 = load i64, ptr %73, align 8, !tbaa !106
  store i64 %74, ptr %9, align 8, !tbaa !11
  %75 = load ptr, ptr %7, align 8, !tbaa !69
  %76 = load ptr, ptr %5, align 8, !tbaa !69
  %77 = load i64, ptr %9, align 8, !tbaa !11
  call void @llvm.memcpy.p0.p0.i64(ptr align 1 %75, ptr align 1 %76, i64 %77, i1 false)
  %78 = load ptr, ptr %4, align 8, !tbaa !101
  %79 = load ptr, ptr %5, align 8, !tbaa !69
  %80 = call ptr @H5FL_arr_free(ptr noundef %78, ptr noundef %79)
  call void @llvm.lifetime.end.p0(i64 8, ptr %9) #9
  br label %83

81:                                               ; preds = %47
  %82 = load ptr, ptr %5, align 8, !tbaa !69
  store ptr %82, ptr %7, align 8, !tbaa !69
  br label %83

83:                                               ; preds = %81, %70
  call void @llvm.lifetime.end.p0(i64 8, ptr %8) #9
  br label %84

84:                                               ; preds = %83, %43
  br label %85

85:                                               ; preds = %84, %32
  %86 = load ptr, ptr %7, align 8, !tbaa !69
  call void @llvm.lifetime.end.p0(i64 8, ptr %7) #9
  ret ptr %86
}