; Function Attrs: nounwind uwtable
define ptr @H5FL_arr_realloc(ptr noundef %0, ptr noundef %1, i64 noundef %2) local_unnamed_addr #0 {
  %4 = load i8, ptr @H5FL_init_g, align 1, !tbaa !3, !range !7, !noundef !8
  %5 = trunc nuw i8 %4 to i1
  %6 = load i8, ptr @H5_libterm_g, align 1, !range !7
  %7 = trunc nuw i8 %6 to i1
  %8 = select i1 %5, i1 true, i1 %7
  br i1 %8, label %9, label %.thread, !prof !15

.thread:                                          ; preds = %3
  store i8 1, ptr @H5FL_init_g, align 1, !tbaa !3
  br label %12

9:                                                ; preds = %3
  %10 = xor i1 %7, true
  %11 = select i1 %5, i1 true, i1 %10
  br i1 %11, label %12, label %27, !prof !87

12:                                               ; preds = %.thread, %9
  %13 = icmp eq ptr %1, null
  br i1 %13, label %14, label %16

14:                                               ; preds = %12
  %15 = tail call noalias ptr @H5FL_arr_malloc(ptr noundef %0, i64 noundef %2)
  br label %27

16:                                               ; preds = %12
  %17 = getelementptr inbounds i8, ptr %1, i64 -8
  %18 = load i64, ptr %17, align 8, !tbaa !96
  %.not = icmp eq i64 %18, %2
  br i1 %.not, label %27, label %19

19:                                               ; preds = %16
  %20 = tail call noalias ptr @H5FL_arr_malloc(ptr noundef %0, i64 noundef %2)
  %21 = getelementptr inbounds nuw i8, ptr %0, i64 48
  %22 = load ptr, ptr %21, align 8, !tbaa !48
  %23 = load i64, ptr %17, align 8, !tbaa !96
  %. = tail call i64 @llvm.umin.i64(i64 %23, i64 %2)
  %24 = getelementptr inbounds nuw %struct.H5FL_arr_node_t, ptr %22, i64 %.
  %25 = load i64, ptr %24, align 8, !tbaa !108
  tail call void @llvm.memcpy.p0.p0.i64(ptr align 1 %20, ptr nonnull align 1 %1, i64 %25, i1 false)
  %26 = tail call ptr @H5FL_arr_free(ptr noundef %0, ptr noundef nonnull %1)
  br label %27

27:                                               ; preds = %19, %16, %14, %9
  %.0 = phi ptr [ %15, %14 ], [ null, %9 ], [ %20, %19 ], [ %1, %16 ]
  ret ptr %.0
}